target datalayout = "e-m:e-p270:32:32-p271:32:32-p272:64:64-i64:64-i128:128-f80:128-n8:16:32:64-S128"
target triple = "x86_64-pc-linux-gnu"

@.str = private unnamed_addr constant [9 x i8] c"#EXTM3U\0A\00", align 1
@.str.1 = private unnamed_addr constant [19 x i8] c"#EXT-X-VERSION:%d\0A\00", align 1

; Function Attrs: nounwind uwtable
define void @ff_hls_write_playlist_version(ptr noundef %0, i32 noundef %1) #0 {
  %3 = alloca ptr, align 8
  %4 = alloca i32, align 4
  store ptr %0, ptr %3, align 8, !tbaa !4
  store i32 %1, ptr %4, align 4, !tbaa !9
  %5 = load ptr, ptr %3, align 8, !tbaa !4
  %6 = icmp ne ptr %5, null
  br i1 %6, label %8, label %7

7:                                                ; preds = %2
  br label %14

8:                                                ; preds = %2
  %9 = load ptr, ptr %3, align 8, !tbaa !4
  %10 = call i32 (ptr, ptr, ...) @avio_printf(ptr noundef %9, ptr noundef @.str)
  %11 = load ptr, ptr %3, align 8, !tbaa !4
  %12 = load i32, ptr %4, align 4, !tbaa !9
  %13 = call i32 (ptr, ptr, ...) @avio_printf(ptr noundef %11, ptr noundef @.str.1, i32 noundef %12)
  br label %14

14:                                               ; preds = %8, %7
  ret void
}