; Function Attrs: nounwind uwtable
define void @ff_hls_write_playlist_version(ptr noundef %0, i32 noundef %1) local_unnamed_addr #0 {
  %.not = icmp eq ptr %0, null
  br i1 %.not, label %6, label %3

3:                                                ; preds = %2
  %4 = tail call i32 (ptr, ptr, ...) @avio_printf(ptr noundef nonnull %0, ptr noundef nonnull @.str) #8
  %5 = tail call i32 (ptr, ptr, ...) @avio_printf(ptr noundef nonnull %0, ptr noundef nonnull @.str.1, i32 noundef %1) #8
  br label %6

6:                                                ; preds = %2, %3
  ret void
}